target datalayout = "e-m:e-p270:32:32-p271:32:32-p272:64:64-i64:64-i128:128-f80:128-n8:16:32:64-S128"
target triple = "x86_64-pc-linux-gnu"

%struct.ThreadList = type { ptr }
%struct.ThreadNode = type { ptr, i16, i32, ptr, i32, i32, %struct.StepRequest, %struct.InvokeRequest, ptr, %struct.CoLocatedEventInfo_, ptr, ptr, i64, ptr }
%struct.StepRequest = type { i32, i32, i8, i8, i8, i32, i32, ptr, ptr, i32, ptr, ptr, ptr, ptr }
%struct.InvokeRequest = type { i8, i8, i8, i8, i32, i8, i8, ptr, ptr, ptr, ptr, i32, ptr, %union.jvalue, ptr }
%union.jvalue = type { i64 }
%struct.CoLocatedEventInfo_ = type { i32, ptr, ptr, i64 }
%struct.BackendGlobalData = type <{ ptr, ptr, i8, i8, i8, i8, i8, i8, i8, i8, i8, [3 x i8], i32, ptr, ptr, ptr, ptr, ptr, ptr, ptr, ptr, ptr, ptr, ptr, ptr, ptr, i32, %struct.jvmtiCapabilities, i8, [3 x i8], %struct.jvmtiEventCallbacks, ptr, ptr, ptr, ptr, ptr, ptr, ptr, i32, [4 x i8], ptr, i64, i32, [4 x i8], ptr, i32, i32, i8, i8, [6 x i8] }>
%struct.jvmtiCapabilities = type { i64, i64 }
%struct.jvmtiEventCallbacks = type { ptr, ptr, ptr, ptr, ptr, ptr, ptr, ptr, ptr, ptr, ptr, ptr, ptr, ptr, ptr, ptr, ptr, ptr, ptr, ptr, ptr, ptr, ptr, ptr, ptr, ptr, ptr, ptr, ptr, ptr, ptr, ptr, ptr, ptr, ptr, ptr, ptr, ptr, ptr }
%struct.jvmtiInterface_1_ = type { ptr, ptr, ptr, ptr, ptr, ptr, ptr, ptr, ptr, ptr, ptr, ptr, ptr, ptr, ptr, ptr, ptr, ptr, ptr, ptr, ptr, ptr, ptr, ptr, ptr, ptr, ptr, ptr, ptr, ptr, ptr, ptr, ptr, ptr, ptr, ptr, ptr, ptr, ptr, ptr, ptr, ptr, ptr, ptr, ptr, ptr, ptr, ptr, ptr, ptr, ptr, ptr, ptr, ptr, ptr, ptr, ptr, ptr, ptr, ptr, ptr, ptr, ptr, ptr, ptr, ptr, ptr, ptr, ptr, ptr, ptr, ptr, ptr, ptr, ptr, ptr, ptr, ptr, ptr, ptr, ptr, ptr, ptr, ptr, ptr, ptr, ptr, ptr, ptr, ptr, ptr, ptr, ptr, ptr, ptr, ptr, ptr, ptr, ptr, ptr, ptr, ptr, ptr, ptr, ptr, ptr, ptr, ptr, ptr, ptr, ptr, ptr, ptr, ptr, ptr, ptr, ptr, ptr, ptr, ptr, ptr, ptr, ptr, ptr, ptr, ptr, ptr, ptr, ptr, ptr, ptr, ptr, ptr, ptr, ptr, ptr, ptr, ptr, ptr, ptr, ptr, ptr, ptr, ptr, ptr, ptr, ptr, ptr, ptr, ptr, ptr, ptr, ptr, ptr, ptr, ptr }

@runningThreads = internal global %struct.ThreadList zeroinitializer, align 8
@runningVThreads = internal global %struct.ThreadList zeroinitializer, align 8
@threadLock = internal global ptr null, align 8
@.str.5 = private unnamed_addr constant [56 x i8] c"src/jdk.jdwp.agent/share/native/libjdwp/threadControl.c\00", align 1
@gdata = external global ptr, align 8
@.str.7 = private unnamed_addr constant [5 x i8] c"%s()\00", align 1
@.str.13 = private unnamed_addr constant [6 x i8] c"JVMTI\00", align 1
@.str.29 = private unnamed_addr constant [40 x i8] c"threadControl_applicationThreadStatus()\00", align 1
@.str.51 = private unnamed_addr constant [15 x i8] c"GetThreadState\00", align 1

; Function Attrs: nounwind uwtable
define internal ptr @findRunningThread(ptr noundef %0) #0 {
  %2 = alloca ptr, align 8
  %3 = alloca ptr, align 8
  store ptr %0, ptr %2, align 8
  %4 = load ptr, ptr %2, align 8
  %5 = call zeroext i8 @isVThread(ptr noundef %4)
  %6 = icmp ne i8 %5, 0
  br i1 %6, label %7, label %10

7:                                                ; preds = %1
  %8 = load ptr, ptr %2, align 8
  %9 = call ptr @findThread(ptr noundef @runningVThreads, ptr noundef %8)
  store ptr %9, ptr %3, align 8
  br label %13

10:                                               ; preds = %1
  %11 = load ptr, ptr %2, align 8
  %12 = call ptr @findThread(ptr noundef @runningThreads, ptr noundef %11)
  store ptr %12, ptr %3, align 8
  br label %13

13:                                               ; preds = %10, %7
  %14 = load ptr, ptr %3, align 8
  ret ptr %14
}

; Function Attrs: nounwind uwtable
define internal i32 @threadState(ptr noundef %0, ptr noundef %1) #0 {
  %3 = alloca ptr, align 8
  %4 = alloca ptr, align 8
  store ptr %0, ptr %3, align 8
  store ptr %1, ptr %4, align 8
  %5 = load ptr, ptr %4, align 8
  store i32 0, ptr %5, align 4
  %6 = load ptr, ptr @gdata, align 8
  %7 = getelementptr inbounds %struct.BackendGlobalData, ptr %6, i32 0, i32 38
  %8 = load i32, ptr %7, align 8
  %9 = and i32 %8, 4
  %10 = icmp ne i32 %9, 0
  br i1 %10, label %11, label %12

11:                                               ; preds = %2
  call void @log_message_begin(ptr noundef @.str.13, ptr noundef @.str.5, i32 noundef 150)
  call void (ptr, ...) @log_message_end(ptr noundef @.str.7, ptr noundef @.str.51)
  br label %13

12:                                               ; preds = %2
  br label %13

13:                                               ; preds = %12, %11
  %14 = load ptr, ptr @gdata, align 8
  %15 = getelementptr inbounds %struct.BackendGlobalData, ptr %14, i32 0, i32 0
  %16 = load ptr, ptr %15, align 8
  %17 = load ptr, ptr %16, align 8
  %18 = getelementptr inbounds %struct.jvmtiInterface_1_, ptr %17, i32 0, i32 16
  %19 = load ptr, ptr %18, align 8
  %20 = load ptr, ptr @gdata, align 8
  %21 = getelementptr inbounds %struct.BackendGlobalData, ptr %20, i32 0, i32 0
  %22 = load ptr, ptr %21, align 8
  %23 = load ptr, ptr %3, align 8
  %24 = load ptr, ptr %4, align 8
  %25 = call i32 %19(ptr noundef %22, ptr noundef %23, ptr noundef %24)
  ret i32 %25
}

; Function Attrs: nounwind uwtable
define hidden i32 @threadControl_applicationThreadStatus(ptr noundef %0, ptr noundef %1, ptr noundef %2) #0 {
  %4 = alloca ptr, align 8
  %5 = alloca ptr, align 8
  %6 = alloca ptr, align 8
  %7 = alloca ptr, align 8
  %8 = alloca i32, align 4
  %9 = alloca i32, align 4
  store ptr %0, ptr %4, align 8
  store ptr %1, ptr %5, align 8
  store ptr %2, ptr %6, align 8
  %10 = load ptr, ptr %4, align 8
  call void @log_debugee_location(ptr noundef @.str.29, ptr noundef %10, ptr noundef null, i64 noundef 0)
  %11 = load ptr, ptr @threadLock, align 8
  call void @debugMonitorEnter(ptr noundef %11)
  %12 = load ptr, ptr %4, align 8
  %13 = call i32 @threadState(ptr noundef %12, ptr noundef %9)
  store i32 %13, ptr %8, align 4
  %14 = load i32, ptr %9, align 4
  %15 = call i32 @map2jdwpThreadStatus(i32 noundef %14)
  %16 = load ptr, ptr %5, align 8
  store i32 %15, ptr %16, align 4
  %17 = load i32, ptr %9, align 4
  %18 = call i32 @map2jdwpSuspendStatus(i32 noundef %17)
  %19 = load ptr, ptr %6, align 8
  store i32 %18, ptr %19, align 4
  %20 = load i32, ptr %8, align 4
  %21 = icmp eq i32 %20, 0
  br i1 %21, label %22, label %35

22:                                               ; preds = %3
  %23 = load ptr, ptr %4, align 8
  %24 = call ptr @findRunningThread(ptr noundef %23)
  store ptr %24, ptr %7, align 8
  %25 = load ptr, ptr %7, align 8
  %26 = icmp ne ptr %25, null
  br i1 %26, label %27, label %34

27:                                               ; preds = %22
  %28 = load ptr, ptr %7, align 8
  %29 = getelementptr inbounds %struct.ThreadNode, ptr %28, i32 0, i32 2
  %30 = load i32, ptr %29, align 4
  %31 = icmp ne i32 %30, 0
  br i1 %31, label %32, label %34

32:                                               ; preds = %27
  %33 = load ptr, ptr %5, align 8
  store i32 1, ptr %33, align 4
  br label %34

34:                                               ; preds = %32, %27, %22
  br label %35

35:                                               ; preds = %34, %3
  %36 = load ptr, ptr @threadLock, align 8
  call void @debugMonitorExit(ptr noundef %36)
  %37 = load i32, ptr %8, align 4
  ret i32 %37
}