; Function Attrs: nounwind uwtable
define hidden i32 @threadControl_applicationThreadStatus(ptr noundef %0, ptr nocapture noundef writeonly %1, ptr nocapture noundef writeonly %2) local_unnamed_addr #0 {
  %4 = alloca i32, align 4
  tail call void @log_debugee_location(ptr noundef nonnull @.str.29, ptr noundef %0, ptr noundef null, i64 noundef 0) #6
  %5 = load ptr, ptr @threadLock, align 8
  tail call void @debugMonitorEnter(ptr noundef %5) #6
  store i32 0, ptr %4, align 4
  %6 = load ptr, ptr @gdata, align 8
  %7 = getelementptr inbounds i8, ptr %6, i64 528
  %8 = load i32, ptr %7, align 8
  %9 = and i32 %8, 4
  %.not.i = icmp eq i32 %9, 0
  br i1 %.not.i, label %threadState.exit, label %10

10:                                               ; preds = %3
  tail call void @log_message_begin(ptr noundef nonnull @.str.13, ptr noundef nonnull @.str.5, i32 noundef 150) #6
  tail call void (ptr, ...) @log_message_end(ptr noundef nonnull @.str.7, ptr noundef nonnull @.str.51) #6
  %.pre.i = load ptr, ptr @gdata, align 8
  br label %threadState.exit

threadState.exit:                                 ; preds = %3, %10
  %11 = phi ptr [ %6, %3 ], [ %.pre.i, %10 ]
  %12 = load ptr, ptr %11, align 8
  %13 = load ptr, ptr %12, align 8
  %14 = getelementptr inbounds i8, ptr %13, i64 128
  %15 = load ptr, ptr %14, align 8
  %16 = call i32 %15(ptr noundef nonnull %12, ptr noundef %0, ptr noundef nonnull %4) #6
  %17 = load i32, ptr %4, align 4
  %18 = call i32 @map2jdwpThreadStatus(i32 noundef %17) #6
  store i32 %18, ptr %1, align 4
  %19 = load i32, ptr %4, align 4
  %20 = call i32 @map2jdwpSuspendStatus(i32 noundef %19) #6
  store i32 %20, ptr %2, align 4
  %21 = icmp eq i32 %16, 0
  br i1 %21, label %22, label %29

22:                                               ; preds = %threadState.exit
  %23 = call zeroext i8 @isVThread(ptr noundef %0) #6
  %.not.i10 = icmp eq i8 %23, 0
  %runningThreads.runningVThreads.i = select i1 %.not.i10, ptr @runningThreads, ptr @runningVThreads
  %24 = call fastcc ptr @findThread(ptr noundef nonnull %runningThreads.runningVThreads.i, ptr noundef %0)
  %.not = icmp eq ptr %24, null
  br i1 %.not, label %29, label %25

25:                                               ; preds = %22
  %26 = getelementptr inbounds i8, ptr %24, i64 12
  %27 = load i32, ptr %26, align 4
  %.not9 = icmp eq i32 %27, 0
  br i1 %.not9, label %29, label %28

28:                                               ; preds = %25
  store i32 1, ptr %1, align 4
  br label %29

29:                                               ; preds = %22, %25, %28, %threadState.exit
  %30 = load ptr, ptr @threadLock, align 8
  call void @debugMonitorExit(ptr noundef %30) #6
  ret i32 %16
}